; ModuleID = '58/75.c'
source_filename = "58/75.c"
target datalayout = "e-m:e-p270:32:32-p271:32:32-p272:64:64-i64:64-f80:128-n8:16:32:64-S128"
target triple = "x86_64-pc-linux-gnu"

@.str = private unnamed_addr constant [4 x i8] c"%d\0A\00", align 1

; Function Attrs: noinline nounwind uwtable
define dso_local void @main() #0 {
  %1 = alloca [81 x i8], align 16
  %2 = alloca i32, align 4
  %3 = alloca i32, align 4
  %4 = alloca i32, align 4
  %5 = alloca i32, align 4
  %6 = alloca i32, align 4
  store i32 0, i32* %6, align 4
  %7 = call i32 (i8*, ...) @__isoc99_scanf(i8* getelementptr inbounds ([4 x i8], [4 x i8]* @.str, i64 0, i64 0), i32* %2)
  store i32 0, i32* %3, align 4
  br label %8

8:                                                ; preds = %119, %0
  %9 = load i32, i32* %3, align 4
  %10 = load i32, i32* %2, align 4
  %11 = icmp slt i32 %9, %10
  br i1 %11, label %12, label %122

12:                                               ; preds = %8
  %13 = getelementptr inbounds [81 x i8], [81 x i8]* %1, i64 0, i64 0
  %14 = call i32 (i8*, ...) bitcast (i32 (...)* @gets to i32 (i8*, ...)*)(i8* %13)
  %15 = getelementptr inbounds [81 x i8], [81 x i8]* %1, i64 0, i64 0
  %16 = call i64 @strlen(i8* %15) #3
  %17 = trunc i64 %16 to i32
  store i32 %17, i32* %5, align 4
  %18 = getelementptr inbounds [81 x i8], [81 x i8]* %1, i64 0, i64 0
  %19 = load i8, i8* %18, align 16
  %20 = sext i8 %19 to i32
  %21 = icmp eq i32 %20, 95
  br i1 %21, label %42, label %22

22:                                               ; preds = %12
  %23 = getelementptr inbounds [81 x i8], [81 x i8]* %1, i64 0, i64 0
  %24 = load i8, i8* %23, align 16
  %25 = sext i8 %24 to i32
  %26 = icmp sge i32 %25, 65
  br i1 %26, label %27, label %32

27:                                               ; preds = %22
  %28 = getelementptr inbounds [81 x i8], [81 x i8]* %1, i64 0, i64 0
  %29 = load i8, i8* %28, align 16
  %30 = sext i8 %29 to i32
  %31 = icmp sle i32 %30, 90
  br i1 %31, label %42, label %32

32:                                               ; preds = %27, %22
  %33 = getelementptr inbounds [81 x i8], [81 x i8]* %1, i64 0, i64 0
  %34 = load i8, i8* %33, align 16
  %35 = sext i8 %34 to i32
  %36 = icmp sge i32 %35, 97
  br i1 %36, label %37, label %43

37:                                               ; preds = %32
  %38 = getelementptr inbounds [81 x i8], [81 x i8]* %1, i64 0, i64 0
  %39 = load i8, i8* %38, align 16
  %40 = sext i8 %39 to i32
  %41 = icmp sle i32 %40, 122
  br i1 %41, label %42, label %43

42:                                               ; preds = %37, %27, %12
  store i32 1, i32* %6, align 4
  br label %44

43:                                               ; preds = %37, %32
  store i32 0, i32* %6, align 4
  br label %44

44:                                               ; preds = %43, %42
  store i32 1, i32* %4, align 4
  br label %45

45:                                               ; preds = %113, %44
  %46 = load i32, i32* %4, align 4
  %47 = load i32, i32* %5, align 4
  %48 = icmp slt i32 %46, %47
  br i1 %48, label %49, label %116

49:                                               ; preds = %45
  %50 = load i32, i32* %6, align 4
  %51 = icmp eq i32 %50, 1
  br i1 %51, label %52, label %112

52:                                               ; preds = %49
  %53 = load i32, i32* %4, align 4
  %54 = sext i32 %53 to i64
  %55 = getelementptr inbounds [81 x i8], [81 x i8]* %1, i64 0, i64 %54
  %56 = load i8, i8* %55, align 1
  %57 = sext i8 %56 to i32
  %58 = icmp eq i32 %57, 32
  br i1 %58, label %59, label %60

59:                                               ; preds = %52
  store i32 0, i32* %6, align 4
  br label %116

60:                                               ; preds = %52
  %61 = load i32, i32* %4, align 4
  %62 = sext i32 %61 to i64
  %63 = getelementptr inbounds [81 x i8], [81 x i8]* %1, i64 0, i64 %62
  %64 = load i8, i8* %63, align 1
  %65 = sext i8 %64 to i32
  %66 = icmp eq i32 %65, 95
  br i1 %66, label %109, label %67

67:                                               ; preds = %60
  %68 = load i32, i32* %4, align 4
  %69 = sext i32 %68 to i64
  %70 = getelementptr inbounds [81 x i8], [81 x i8]* %1, i64 0, i64 %69
  %71 = load i8, i8* %70, align 1
  %72 = sext i8 %71 to i32
  %73 = icmp sge i32 %72, 65
  br i1 %73, label %74, label %81

74:                                               ; preds = %67
  %75 = load i32, i32* %4, align 4
  %76 = sext i32 %75 to i64
  %77 = getelementptr inbounds [81 x i8], [81 x i8]* %1, i64 0, i64 %76
  %78 = load i8, i8* %77, align 1
  %79 = sext i8 %78 to i32
  %80 = icmp sle i32 %79, 90
  br i1 %80, label %109, label %81

81:                                               ; preds = %74, %67
  %82 = load i32, i32* %4, align 4
  %83 = sext i32 %82 to i64
  %84 = getelementptr inbounds [81 x i8], [81 x i8]* %1, i64 0, i64 %83
  %85 = load i8, i8* %84, align 1
  %86 = sext i8 %85 to i32
  %87 = icmp sge i32 %86, 97
  br i1 %87, label %88, label %95

88:                                               ; preds = %81
  %89 = load i32, i32* %4, align 4
  %90 = sext i32 %89 to i64
  %91 = getelementptr inbounds [81 x i8], [81 x i8]* %1, i64 0, i64 %90
  %92 = load i8, i8* %91, align 1
  %93 = sext i8 %92 to i32
  %94 = icmp sle i32 %93, 122
  br i1 %94, label %109, label %95

95:                                               ; preds = %88, %81
  %96 = load i32, i32* %4, align 4
  %97 = sext i32 %96 to i64
  %98 = getelementptr inbounds [81 x i8], [81 x i8]* %1, i64 0, i64 %97
  %99 = load i8, i8* %98, align 1
  %100 = sext i8 %99 to i32
  %101 = icmp sge i32 %100, 48
  br i1 %101, label %102, label %110

102:                                              ; preds = %95
  %103 = load i32, i32* %4, align 4
  %104 = sext i32 %103 to i64
  %105 = getelementptr inbounds [81 x i8], [81 x i8]* %1, i64 0, i64 %104
  %106 = load i8, i8* %105, align 1
  %107 = sext i8 %106 to i32
  %108 = icmp sle i32 %107, 57
  br i1 %108, label %109, label %110

109:                                              ; preds = %102, %88, %74, %60
  store i32 1, i32* %6, align 4
  br label %111

110:                                              ; preds = %102, %95
  store i32 0, i32* %6, align 4
  br label %116

111:                                              ; preds = %109
  br label %112

112:                                              ; preds = %111, %49
  br label %113

113:                                              ; preds = %112
  %114 = load i32, i32* %4, align 4
  %115 = add nsw i32 %114, 1
  store i32 %115, i32* %4, align 4
  br label %45

116:                                              ; preds = %110, %59, %45
  %117 = load i32, i32* %6, align 4
  %118 = call i32 (i8*, ...) @printf(i8* getelementptr inbounds ([4 x i8], [4 x i8]* @.str, i64 0, i64 0), i32 %117)
  br label %119

119:                                              ; preds = %116
  %120 = load i32, i32* %3, align 4
  %121 = add nsw i32 %120, 1
  store i32 %121, i32* %3, align 4
  br label %8

122:                                              ; preds = %8
  ret void
}

declare dso_local i32 @__isoc99_scanf(i8*, ...) #1

declare dso_local i32 @gets(...) #1

; Function Attrs: nounwind readonly
declare dso_local i64 @strlen(i8*) #2

declare dso_local i32 @printf(i8*, ...) #1


!llvm.module.flags = !{!0}
!llvm.ident = !{!1}

!0 = !{i32 1, !"wchar_size", i32 4}
!1 = !{!"clang version 10.0.0-4ubuntu1 "}
