; ModuleID = 'source-C-CXX/57/75.c'
source_filename = "source-C-CXX/57/75.c"
target datalayout = "e-m:e-p270:32:32-p271:32:32-p272:64:64-i64:64-f80:128-n8:16:32:64-S128"
target triple = "x86_64-pc-linux-gnu"

@.str = private unnamed_addr constant [4 x i8] c"%d\0A\00", align 1

; Function Attrs: nounwind sspstrong uwtable
define dso_local void @main() local_unnamed_addr #0 {
  %1 = alloca [81 x i8], align 16
  %2 = alloca i32, align 4
  %3 = getelementptr inbounds [81 x i8], [81 x i8]* %1, i64 0, i64 0
  call void @llvm.lifetime.start.p0i8(i64 81, i8* nonnull %3) #5
  %4 = bitcast i32* %2 to i8*
  call void @llvm.lifetime.start.p0i8(i64 4, i8* nonnull %4) #5
  %5 = call i32 (i8*, ...) @__isoc99_scanf(i8* getelementptr inbounds ([4 x i8], [4 x i8]* @.str, i64 0, i64 0), i32* nonnull %2)
  %6 = load i32, i32* %2, align 4, !tbaa !5
  %7 = icmp sgt i32 %6, 0
  br i1 %7, label %8, label %47

8:                                                ; preds = %0, %41
  %9 = phi i32 [ %44, %41 ], [ 0, %0 ]
  %10 = call i32 (i8*, ...) bitcast (i32 (...)* @gets to i32 (i8*, ...)*)(i8* nonnull %3) #5
  %11 = call i64 @strlen(i8* noundef nonnull %3) #6
  %12 = trunc i64 %11 to i32
  %13 = load i8, i8* %3, align 16, !tbaa !9
  %14 = icmp eq i8 %13, 95
  %15 = and i8 %13, -33
  %16 = add i8 %15, -65
  %17 = icmp ult i8 %16, 26
  %18 = or i1 %17, %14
  %19 = zext i1 %18 to i32
  %20 = icmp sgt i32 %12, 1
  br i1 %20, label %21, label %41

21:                                               ; preds = %8
  %22 = and i64 %11, 4294967295
  br label %23

23:                                               ; preds = %21, %37
  %24 = phi i64 [ 1, %21 ], [ %39, %37 ]
  %25 = phi i32 [ %19, %21 ], [ %38, %37 ]
  %26 = icmp eq i32 %25, 1
  br i1 %26, label %27, label %37

27:                                               ; preds = %23
  %28 = getelementptr inbounds [81 x i8], [81 x i8]* %1, i64 0, i64 %24
  %29 = load i8, i8* %28, align 1, !tbaa !9
  switch i8 %29, label %30 [
    i8 32, label %41
    i8 95, label %37
  ]

30:                                               ; preds = %27
  %31 = and i8 %29, -33
  %32 = add i8 %31, -65
  %33 = icmp ult i8 %32, 26
  %34 = add i8 %29, -48
  %35 = icmp ult i8 %34, 10
  %36 = select i1 %33, i1 true, i1 %35
  br i1 %36, label %37, label %41

37:                                               ; preds = %27, %30, %23
  %38 = phi i32 [ 0, %23 ], [ 1, %30 ], [ 1, %27 ]
  %39 = add nuw nsw i64 %24, 1
  %40 = icmp eq i64 %39, %22
  br i1 %40, label %41, label %23, !llvm.loop !10

41:                                               ; preds = %37, %27, %30, %8
  %42 = phi i32 [ %19, %8 ], [ 0, %30 ], [ 0, %27 ], [ %38, %37 ]
  %43 = call i32 (i8*, ...) @printf(i8* nonnull dereferenceable(1) getelementptr inbounds ([4 x i8], [4 x i8]* @.str, i64 0, i64 0), i32 %42)
  %44 = add nuw nsw i32 %9, 1
  %45 = load i32, i32* %2, align 4, !tbaa !5
  %46 = icmp slt i32 %44, %45
  br i1 %46, label %8, label %47, !llvm.loop !12

47:                                               ; preds = %41, %0
  call void @llvm.lifetime.end.p0i8(i64 4, i8* nonnull %4) #5
  call void @llvm.lifetime.end.p0i8(i64 81, i8* nonnull %3) #5
  ret void
}

; Function Attrs: argmemonly mustprogress nofree nosync nounwind willreturn
declare void @llvm.lifetime.start.p0i8(i64 immarg, i8* nocapture) #1

; Function Attrs: nofree nounwind
declare noundef i32 @__isoc99_scanf(i8* nocapture noundef readonly, ...) local_unnamed_addr #2

declare i32 @gets(...) local_unnamed_addr #3

; Function Attrs: argmemonly mustprogress nofree nounwind readonly willreturn
declare i64 @strlen(i8* nocapture) local_unnamed_addr #4

; Function Attrs: nofree nounwind
declare noundef i32 @printf(i8* nocapture noundef readonly, ...) local_unnamed_addr #2

; Function Attrs: argmemonly mustprogress nofree nosync nounwind willreturn
declare void @llvm.lifetime.end.p0i8(i64 immarg, i8* nocapture) #1


!llvm.module.flags = !{!0, !1, !2, !3}
!llvm.ident = !{!4}

!0 = !{i32 1, !"wchar_size", i32 4}
!1 = !{i32 7, !"PIC Level", i32 2}
!2 = !{i32 7, !"PIE Level", i32 2}
!3 = !{i32 7, !"uwtable", i32 1}
!4 = !{!"clang version 13.0.0"}
!5 = !{!6, !6, i64 0}
!6 = !{!"int", !7, i64 0}
!7 = !{!"omnipotent char", !8, i64 0}
!8 = !{!"Simple C/C++ TBAA"}
!9 = !{!7, !7, i64 0}
!10 = distinct !{!10, !11}
!11 = !{!"llvm.loop.mustprogress"}
!12 = distinct !{!12, !11}
